; Function Attrs: nounwind sspstrong uwtable
define internal fastcc i64 @rt__valid_commercial_p(i64 noundef %0, i64 noundef %1, i64 noundef %2, i64 noundef %3) unnamed_addr #0 {
  %5 = alloca i64, align 8
  %6 = alloca i64, align 8
  %7 = alloca i32, align 4
  %8 = alloca i32, align 4
  %9 = alloca i32, align 4
  %10 = alloca i32, align 4
  %11 = alloca i32, align 4
  call void @llvm.lifetime.start.p0(i64 8, ptr nonnull %5) #21
  call void @llvm.lifetime.start.p0(i64 8, ptr nonnull %6) #21
  call void @llvm.lifetime.start.p0(i64 4, ptr nonnull %7) #21
  call void @llvm.lifetime.start.p0(i64 4, ptr nonnull %8) #21
  call void @llvm.lifetime.start.p0(i64 4, ptr nonnull %9) #21
  call void @llvm.lifetime.start.p0(i64 4, ptr nonnull %10) #21
  call void @llvm.lifetime.start.p0(i64 4, ptr nonnull %11) #21
  %12 = and i64 %1, 1
  %.not.i = icmp eq i64 %12, 0
  br i1 %.not.i, label %15, label %13

13:                                               ; preds = %4
  %14 = tail call i64 @rb_fix2int(i64 noundef %1) #21
  br label %rb_num2int_inline.exit

15:                                               ; preds = %4
  %16 = tail call i64 @rb_num2int(i64 noundef %1) #21
  br label %rb_num2int_inline.exit

rb_num2int_inline.exit:                           ; preds = %13, %15
  %.0.i = phi i64 [ %14, %13 ], [ %16, %15 ]
  %17 = trunc i64 %.0.i to i32
  %18 = and i64 %2, 1
  %.not.i5 = icmp eq i64 %18, 0
  br i1 %.not.i5, label %21, label %19

19:                                               ; preds = %rb_num2int_inline.exit
  %20 = tail call i64 @rb_fix2int(i64 noundef %2) #21
  br label %rb_num2int_inline.exit7

21:                                               ; preds = %rb_num2int_inline.exit
  %22 = tail call i64 @rb_num2int(i64 noundef %2) #21
  br label %rb_num2int_inline.exit7

rb_num2int_inline.exit7:                          ; preds = %19, %21
  %.0.i6 = phi i64 [ %20, %19 ], [ %22, %21 ]
  %23 = trunc i64 %.0.i6 to i32
  %24 = tail call double @rb_num2dbl(i64 noundef %3) #21
  %25 = call fastcc i32 @valid_commercial_p(i64 noundef %0, i32 noundef %17, i32 noundef %23, double noundef %24, ptr noundef %5, ptr noundef %7, ptr noundef %8, ptr noundef %9, ptr noundef %10, ptr noundef %11)
  %.not = icmp eq i32 %25, 0
  br i1 %.not, label %30, label %26

26:                                               ; preds = %rb_num2int_inline.exit7
  %27 = load i64, ptr %5, align 8, !tbaa !6
  %28 = load i32, ptr %10, align 4, !tbaa !33
  call fastcc void @encode_jd(i64 noundef %27, i32 noundef %28, ptr noundef %6)
  %29 = load i64, ptr %6, align 8, !tbaa !6
  br label %30

30:                                               ; preds = %rb_num2int_inline.exit7, %26
  %.0 = phi i64 [ %29, %26 ], [ 4, %rb_num2int_inline.exit7 ]
  call void @llvm.lifetime.end.p0(i64 4, ptr nonnull %11) #21
  call void @llvm.lifetime.end.p0(i64 4, ptr nonnull %10) #21
  call void @llvm.lifetime.end.p0(i64 4, ptr nonnull %9) #21
  call void @llvm.lifetime.end.p0(i64 4, ptr nonnull %8) #21
  call void @llvm.lifetime.end.p0(i64 4, ptr nonnull %7) #21
  call void @llvm.lifetime.end.p0(i64 8, ptr nonnull %6) #21
  call void @llvm.lifetime.end.p0(i64 8, ptr nonnull %5) #21
  ret i64 %.0
}